target datalayout = "e-m:e-p270:32:32-p271:32:32-p272:64:64-i64:64-i128:128-f80:128-n8:16:32:64-S128"
target triple = "x86_64-pc-linux-gnu"

%struct.ggml_opt_optimizer_params = type { %struct.anon }
%struct.anon = type { float, float, float, float, float }

; Function Attrs: mustprogress nounwind uwtable
define void @ggml_opt_get_default_optimizer_params(ptr dead_on_unwind noalias writable sret(%struct.ggml_opt_optimizer_params) align 4 %0, ptr noundef %1) #7 {
  %3 = alloca ptr, align 8
  store ptr %1, ptr %3, align 8, !tbaa !27
  %4 = getelementptr inbounds nuw %struct.ggml_opt_optimizer_params, ptr %0, i32 0, i32 0
  %5 = getelementptr inbounds nuw %struct.anon, ptr %4, i32 0, i32 0
  store float 0x3F50624DE0000000, ptr %5, align 4, !tbaa !65
  %6 = getelementptr inbounds nuw %struct.ggml_opt_optimizer_params, ptr %0, i32 0, i32 0
  %7 = getelementptr inbounds nuw %struct.anon, ptr %6, i32 0, i32 1
  store float 0x3FECCCCCC0000000, ptr %7, align 4, !tbaa !69
  %8 = getelementptr inbounds nuw %struct.ggml_opt_optimizer_params, ptr %0, i32 0, i32 0
  %9 = getelementptr inbounds nuw %struct.anon, ptr %8, i32 0, i32 2
  store float 0x3FEFF7CEE0000000, ptr %9, align 4, !tbaa !70
  %10 = getelementptr inbounds nuw %struct.ggml_opt_optimizer_params, ptr %0, i32 0, i32 0
  %11 = getelementptr inbounds nuw %struct.anon, ptr %10, i32 0, i32 3
  store float 0x3E45798EE0000000, ptr %11, align 4, !tbaa !71
  %12 = getelementptr inbounds nuw %struct.ggml_opt_optimizer_params, ptr %0, i32 0, i32 0
  %13 = getelementptr inbounds nuw %struct.anon, ptr %12, i32 0, i32 4
  store float 0.000000e+00, ptr %13, align 4, !tbaa !72
  ret void
}