; Function Attrs: mustprogress nofree norecurse nosync nounwind willreturn memory(argmem: write) uwtable
define void @ggml_opt_get_default_optimizer_params(ptr dead_on_unwind noalias writable writeonly sret(%struct.ggml_opt_optimizer_params) align 4 captures(none) initializes((0, 20)) %0, ptr readnone captures(none) %1) #8 {
  store float 0x3F50624DE0000000, ptr %0, align 4, !tbaa !45
  %3 = getelementptr inbounds nuw i8, ptr %0, i64 4
  store float 0x3FECCCCCC0000000, ptr %3, align 4, !tbaa !49
  %4 = getelementptr inbounds nuw i8, ptr %0, i64 8
  store float 0x3FEFF7CEE0000000, ptr %4, align 4, !tbaa !50
  %5 = getelementptr inbounds nuw i8, ptr %0, i64 12
  store float 0x3E45798EE0000000, ptr %5, align 4, !tbaa !51
  %6 = getelementptr inbounds nuw i8, ptr %0, i64 16
  store float 0.000000e+00, ptr %6, align 4, !tbaa !52
  ret void
}